target datalayout = "e-m:e-p270:32:32-p271:32:32-p272:64:64-i64:64-i128:128-f80:128-n8:16:32:64-S128"
target triple = "x86_64-pc-linux-gnu"

%struct.darktable_t = type { %struct.dt_codepath_t, i32, i32, ptr, ptr, ptr, ptr, ptr, ptr, ptr, ptr, ptr, ptr, ptr, ptr, ptr, ptr, ptr, ptr, ptr, ptr, ptr, ptr, ptr, ptr, ptr, ptr, ptr, ptr, ptr, [64 x %struct.dt_pthread_mutex_t], %struct.dt_pthread_mutex_t, %struct.dt_pthread_mutex_t, %struct.dt_pthread_mutex_t, %struct.dt_pthread_mutex_t, %struct.dt_pthread_mutex_t, ptr, ptr, ptr, ptr, ptr, ptr, ptr, ptr, ptr, ptr, ptr, ptr, ptr, %struct.dt_lua_state_t, ptr, double, ptr, i32, [47 x i32], i32, i32, ptr, ptr, %struct.dt_sys_resources_t, %struct.dt_backthumb_t, %struct.dt_gimp_t }
%struct.dt_codepath_t = type { i8, [3 x i8] }
%struct.dt_pthread_mutex_t = type { %union.pthread_mutex_t }
%union.pthread_mutex_t = type { %struct.__pthread_mutex_s }
%struct.__pthread_mutex_s = type { i32, i32, i32, i32, i32, i16, i16, %struct.__pthread_internal_list }
%struct.__pthread_internal_list = type { ptr, ptr }
%struct.dt_lua_state_t = type { i32 }
%struct.dt_sys_resources_t = type { i64, i64, ptr, ptr, i32 }
%struct.dt_backthumb_t = type { double, double, i32, i32, i32, i32 }
%struct.dt_gimp_t = type { i32, ptr, ptr, i32, i32 }
%struct._DtBauhausWidget = type { %struct._GtkDrawingArea, i32, ptr, ptr, i32, [256 x i8], i32, ptr, i32, ptr, ptr, i32, ptr, i32, i32, i32, %struct._GtkBorder, %struct._GtkBorder, i32, %union.dt_bauhaus_data_t }
%struct._GtkDrawingArea = type { %struct._GtkWidget, ptr }
%struct._GtkWidget = type { %struct._GObject, ptr }
%struct._GObject = type { %struct._GTypeInstance, i32, ptr }
%struct._GTypeInstance = type { ptr }
%struct._GtkBorder = type { i16, i16, i16, i16 }
%union.dt_bauhaus_data_t = type { %struct.dt_bauhaus_slider_data_t }
%struct.dt_bauhaus_slider_data_t = type { float, float, float, float, float, float, float, float, float, float, i32, ptr, i32, ptr, i8, ptr, float, float, i8, i32, ptr }
%struct.dt_action_t = type { i32, ptr, ptr, ptr, ptr, ptr }
%struct._GdkEventKey = type { i32, ptr, i8, i32, i32, i32, i32, ptr, i16, i8, i8 }
%struct.dt_lib_t = type { ptr, ptr, %struct.anon.7 }
%struct.anon.7 = type { %struct.anon.8, %struct.anon.9, %struct.anon.10, %struct.anon.11 }
%struct.anon.8 = type { ptr, ptr, ptr, ptr, ptr, i32, i32, i32, ptr, ptr, ptr, ptr, ptr }
%struct.anon.9 = type { ptr, ptr, i32 }
%struct.anon.10 = type { ptr }
%struct.anon.11 = type { i32 }

@darktable = external global %struct.darktable_t, align 8

; Function Attrs: inlinehint nounwind uwtable
define internal ptr @dt_action_lib(ptr noundef %0) #4 {
  %2 = alloca ptr, align 8
  store ptr %0, ptr %2, align 8, !tbaa !214
  br label %3

3:                                                ; preds = %13, %1
  %4 = load ptr, ptr %2, align 8, !tbaa !214
  %5 = icmp ne ptr %4, null
  br i1 %5, label %6, label %11

6:                                                ; preds = %3
  %7 = load ptr, ptr %2, align 8, !tbaa !214
  %8 = getelementptr inbounds nuw %struct.dt_action_t, ptr %7, i32 0, i32 0
  %9 = load i32, ptr %8, align 8, !tbaa !216
  %10 = icmp ne i32 %9, 3
  br label %11

11:                                               ; preds = %6, %3
  %12 = phi i1 [ false, %3 ], [ %10, %6 ]
  br i1 %12, label %13, label %17

13:                                               ; preds = %11
  %14 = load ptr, ptr %2, align 8, !tbaa !214
  %15 = getelementptr inbounds nuw %struct.dt_action_t, ptr %14, i32 0, i32 4
  %16 = load ptr, ptr %15, align 8, !tbaa !352
  store ptr %16, ptr %2, align 8, !tbaa !214
  br label %3

17:                                               ; preds = %11
  %18 = load ptr, ptr %2, align 8, !tbaa !214
  ret ptr %18
}

; Function Attrs: nounwind uwtable
define internal void @_request_focus(ptr noundef %0) #0 {
  %2 = alloca ptr, align 8
  store ptr %0, ptr %2, align 8, !tbaa !17
  %3 = load ptr, ptr %2, align 8, !tbaa !17
  %4 = getelementptr inbounds nuw %struct._DtBauhausWidget, ptr %3, i32 0, i32 2
  %5 = load ptr, ptr %4, align 8, !tbaa !194
  %6 = icmp ne ptr %5, null
  br i1 %6, label %7, label %18

7:                                                ; preds = %1
  %8 = load ptr, ptr %2, align 8, !tbaa !17
  %9 = getelementptr inbounds nuw %struct._DtBauhausWidget, ptr %8, i32 0, i32 2
  %10 = load ptr, ptr %9, align 8, !tbaa !194
  %11 = getelementptr inbounds nuw %struct.dt_action_t, ptr %10, i32 0, i32 0
  %12 = load i32, ptr %11, align 8, !tbaa !216
  %13 = icmp eq i32 %12, 7
  br i1 %13, label %14, label %18

14:                                               ; preds = %7
  %15 = load ptr, ptr %2, align 8, !tbaa !17
  %16 = getelementptr inbounds nuw %struct._DtBauhausWidget, ptr %15, i32 0, i32 2
  %17 = load ptr, ptr %16, align 8, !tbaa !194
  call void @dt_iop_request_focus(ptr noundef %17)
  br label %32

18:                                               ; preds = %7, %1
  %19 = load ptr, ptr %2, align 8, !tbaa !17
  %20 = getelementptr inbounds nuw %struct._DtBauhausWidget, ptr %19, i32 0, i32 2
  %21 = load ptr, ptr %20, align 8, !tbaa !194
  %22 = call ptr @dt_action_lib(ptr noundef %21)
  %23 = icmp ne ptr %22, null
  br i1 %23, label %24, label %31

24:                                               ; preds = %18
  %25 = load ptr, ptr %2, align 8, !tbaa !17
  %26 = getelementptr inbounds nuw %struct._DtBauhausWidget, ptr %25, i32 0, i32 2
  %27 = load ptr, ptr %26, align 8, !tbaa !194
  %28 = call ptr @dt_action_lib(ptr noundef %27)
  %29 = load ptr, ptr getelementptr inbounds nuw (%struct.darktable_t, ptr @darktable, i32 0, i32 10), align 8, !tbaa !343
  %30 = getelementptr inbounds nuw %struct.dt_lib_t, ptr %29, i32 0, i32 1
  store ptr %28, ptr %30, align 8, !tbaa !344
  br label %31

31:                                               ; preds = %24, %18
  br label %32

32:                                               ; preds = %31, %14
  %33 = load ptr, ptr %2, align 8, !tbaa !17
  %34 = call i64 @gtk_widget_get_type() #14
  %35 = call ptr @g_type_check_instance_cast(ptr noundef %33, i64 noundef %34)
  call void @gtk_widget_set_state_flags(ptr noundef %35, i32 noundef 32, i32 noundef 0)
  ret void
}

; Function Attrs: nounwind uwtable
define internal i32 @_widget_key_press(ptr noundef %0, ptr noundef %1) #0 {
  %3 = alloca i32, align 4
  %4 = alloca ptr, align 8
  %5 = alloca ptr, align 8
  %6 = alloca ptr, align 8
  %7 = alloca i32, align 4
  %8 = alloca i32, align 4
  store ptr %0, ptr %4, align 8, !tbaa !15
  store ptr %1, ptr %5, align 8, !tbaa !195
  call void @llvm.lifetime.start.p0(i64 8, ptr %6) #13
  %9 = load ptr, ptr %4, align 8, !tbaa !15
  store ptr %9, ptr %6, align 8, !tbaa !17
  call void @llvm.lifetime.start.p0(i64 4, ptr %7) #13
  store i32 -1, ptr %7, align 4, !tbaa !13
  %10 = load ptr, ptr %5, align 8, !tbaa !195
  %11 = getelementptr inbounds nuw %struct._GdkEventKey, ptr %10, i32 0, i32 5
  %12 = load i32, ptr %11, align 4, !tbaa !197
  switch i32 %12, label %53 [
    i32 65363, label %13
    i32 65432, label %13
    i32 65362, label %22
    i32 65431, label %22
    i32 65364, label %25
    i32 65433, label %25
    i32 65361, label %34
    i32 65430, label %34
    i32 65293, label %51
    i32 65421, label %51
  ]

13:                                               ; preds = %2, %2
  %14 = load ptr, ptr %6, align 8, !tbaa !17
  %15 = getelementptr inbounds nuw %struct._DtBauhausWidget, ptr %14, i32 0, i32 1
  %16 = load i32, ptr %15, align 8, !tbaa !139
  %17 = icmp eq i32 %16, 2
  br i1 %17, label %18, label %21

18:                                               ; preds = %13
  %19 = load i32, ptr %7, align 4, !tbaa !13
  %20 = mul nsw i32 %19, -1
  store i32 %20, ptr %7, align 4, !tbaa !13
  br label %21

21:                                               ; preds = %18, %13
  br label %22

22:                                               ; preds = %2, %2, %21
  %23 = load i32, ptr %7, align 4, !tbaa !13
  %24 = mul nsw i32 %23, -1
  store i32 %24, ptr %7, align 4, !tbaa !13
  br label %25

25:                                               ; preds = %2, %2, %22
  %26 = load ptr, ptr %6, align 8, !tbaa !17
  %27 = getelementptr inbounds nuw %struct._DtBauhausWidget, ptr %26, i32 0, i32 1
  %28 = load i32, ptr %27, align 8, !tbaa !139
  %29 = icmp eq i32 %28, 2
  br i1 %29, label %30, label %33

30:                                               ; preds = %25
  %31 = load i32, ptr %7, align 4, !tbaa !13
  %32 = mul nsw i32 %31, -1
  store i32 %32, ptr %7, align 4, !tbaa !13
  br label %33

33:                                               ; preds = %30, %25
  br label %34

34:                                               ; preds = %2, %2, %33
  %35 = load ptr, ptr %6, align 8, !tbaa !17
  call void @_request_focus(ptr noundef %35)
  %36 = load ptr, ptr %6, align 8, !tbaa !17
  %37 = getelementptr inbounds nuw %struct._DtBauhausWidget, ptr %36, i32 0, i32 1
  %38 = load i32, ptr %37, align 8, !tbaa !139
  %39 = icmp eq i32 %38, 1
  br i1 %39, label %40, label %47

40:                                               ; preds = %34
  %41 = load ptr, ptr %4, align 8, !tbaa !15
  %42 = load i32, ptr %7, align 4, !tbaa !13
  %43 = sitofp i32 %42 to float
  %44 = load ptr, ptr %5, align 8, !tbaa !195
  %45 = getelementptr inbounds nuw %struct._GdkEventKey, ptr %44, i32 0, i32 4
  %46 = load i32, ptr %45, align 8, !tbaa !200
  call void @_slider_add_step(ptr noundef %41, float noundef %43, i32 noundef %46, i32 noundef 0)
  br label %50

47:                                               ; preds = %34
  %48 = load ptr, ptr %6, align 8, !tbaa !17
  %49 = load i32, ptr %7, align 4, !tbaa !13
  call void @_combobox_next_sensitive(ptr noundef %48, i32 noundef %49, i32 noundef 0, i32 noundef 0)
  br label %50

50:                                               ; preds = %47, %40
  store i32 1, ptr %3, align 4
  store i32 1, ptr %8, align 4
  br label %54

51:                                               ; preds = %2, %2
  %52 = load ptr, ptr %4, align 8, !tbaa !15
  call void @_popup_show(ptr noundef %52)
  store i32 1, ptr %3, align 4
  store i32 1, ptr %8, align 4
  br label %54

53:                                               ; preds = %2
  store i32 0, ptr %3, align 4
  store i32 1, ptr %8, align 4
  br label %54

54:                                               ; preds = %53, %51, %50
  call void @llvm.lifetime.end.p0(i64 4, ptr %7) #13
  call void @llvm.lifetime.end.p0(i64 8, ptr %6) #13
  %55 = load i32, ptr %3, align 4
  ret i32 %55
}