; Function Attrs: nounwind uwtable
define internal range(i32 0, 2) i32 @_widget_key_press(ptr noundef %0, ptr noundef readonly captures(none) %1) #0 {
  %3 = getelementptr inbounds nuw i8, ptr %1, i64 28
  %4 = load i32, ptr %3, align 4, !tbaa !162
  switch i32 %4, label %40 [
    i32 65363, label %5
    i32 65432, label %5
    i32 65362, label %9
    i32 65431, label %9
    i32 65364, label %10
    i32 65433, label %10
    i32 65361, label %15
    i32 65430, label %15
    i32 65293, label %39
    i32 65421, label %39
  ]

5:                                                ; preds = %2, %2
  %6 = getelementptr inbounds nuw i8, ptr %0, i64 40
  %7 = load i32, ptr %6, align 8, !tbaa !105
  %8 = icmp eq i32 %7, 2
  %spec.select = select i1 %8, i32 -1, i32 1
  br label %9

9:                                                ; preds = %5, %2, %2
  %.0.neg = phi i32 [ 1, %2 ], [ 1, %2 ], [ %spec.select, %5 ]
  br label %10

10:                                               ; preds = %9, %2, %2
  %.1 = phi i32 [ -1, %2 ], [ -1, %2 ], [ %.0.neg, %9 ]
  %11 = getelementptr inbounds nuw i8, ptr %0, i64 40
  %12 = load i32, ptr %11, align 8, !tbaa !105
  %13 = icmp eq i32 %12, 2
  %14 = sub nsw i32 0, %.1
  %spec.select16 = select i1 %13, i32 %14, i32 %.1
  br label %15

15:                                               ; preds = %10, %2, %2
  %.2 = phi i32 [ -1, %2 ], [ -1, %2 ], [ %spec.select16, %10 ]
  %16 = getelementptr inbounds nuw i8, ptr %0, i64 48
  %17 = load ptr, ptr %16, align 8, !tbaa !161
  %.not.i = icmp eq ptr %17, null
  br i1 %.not.i, label %_request_focus.exit, label %18

18:                                               ; preds = %15
  %19 = load i32, ptr %17, align 8, !tbaa !176
  switch i32 %19, label %.lr.ph.i [
    i32 7, label %20
    i32 3, label %.lr.ph.i8.i.preheader
  ]

.lr.ph.i8.i.preheader:                            ; preds = %.lr.ph.ithread-pre-split.i, %18
  br label %.lr.ph.i8.i

20:                                               ; preds = %18
  tail call void @dt_iop_request_focus(ptr noundef nonnull %17) #19
  br label %_request_focus.exit

.lr.ph.ithread-pre-split.i:                       ; preds = %.lr.ph.i
  %.pr.i = load i32, ptr %22, align 8, !tbaa !176
  %.not4.i.i = icmp eq i32 %.pr.i, 3
  br i1 %.not4.i.i, label %.lr.ph.i8.i.preheader, label %.lr.ph.i

.lr.ph.i:                                         ; preds = %18, %.lr.ph.ithread-pre-split.i
  %.06.i17.i = phi ptr [ %22, %.lr.ph.ithread-pre-split.i ], [ %17, %18 ]
  %21 = getelementptr inbounds nuw i8, ptr %.06.i17.i, i64 32
  %22 = load ptr, ptr %21, align 8, !tbaa !267
  %.not.i.i = icmp eq ptr %22, null
  br i1 %.not.i.i, label %_request_focus.exit, label %.lr.ph.ithread-pre-split.i

.lr.ph.i8.i:                                      ; preds = %.lr.ph.i8.i.preheader, %24
  %.06.i9.i = phi ptr [ %26, %24 ], [ %17, %.lr.ph.i8.i.preheader ]
  %23 = load i32, ptr %.06.i9.i, align 8, !tbaa !176
  %.not4.i10.i = icmp eq i32 %23, 3
  br i1 %.not4.i10.i, label %dt_action_lib.exit13.i, label %24

24:                                               ; preds = %.lr.ph.i8.i
  %25 = getelementptr inbounds nuw i8, ptr %.06.i9.i, i64 32
  %26 = load ptr, ptr %25, align 8, !tbaa !267
  %.not.i11.i = icmp eq ptr %26, null
  br i1 %.not.i11.i, label %dt_action_lib.exit13.i, label %.lr.ph.i8.i

dt_action_lib.exit13.i:                           ; preds = %24, %.lr.ph.i8.i
  %.0.lcssa.i12.i = phi ptr [ null, %24 ], [ %.06.i9.i, %.lr.ph.i8.i ]
  %27 = load ptr, ptr getelementptr inbounds nuw (i8, ptr @darktable, i64 72), align 8, !tbaa !268
  %28 = getelementptr inbounds nuw i8, ptr %27, i64 8
  store ptr %.0.lcssa.i12.i, ptr %28, align 8, !tbaa !269
  br label %_request_focus.exit

_request_focus.exit:                              ; preds = %.lr.ph.i, %15, %20, %dt_action_lib.exit13.i
  %29 = tail call i64 @gtk_widget_get_type() #20
  %30 = tail call ptr @g_type_check_instance_cast(ptr noundef %0, i64 noundef %29) #19
  tail call void @gtk_widget_set_state_flags(ptr noundef %30, i32 noundef 32, i32 noundef 0) #19
  %31 = getelementptr inbounds nuw i8, ptr %0, i64 40
  %32 = load i32, ptr %31, align 8, !tbaa !105
  %33 = icmp eq i32 %32, 1
  br i1 %33, label %34, label %38

34:                                               ; preds = %_request_focus.exit
  %35 = sitofp i32 %.2 to float
  %36 = getelementptr inbounds nuw i8, ptr %1, i64 24
  %37 = load i32, ptr %36, align 8, !tbaa !165
  tail call fastcc void @_slider_add_step(ptr noundef nonnull %0, float noundef %35, i32 noundef %37, i32 noundef 0)
  br label %40

38:                                               ; preds = %_request_focus.exit
  tail call fastcc void @_combobox_next_sensitive(ptr noundef nonnull %0, i32 noundef %.2, i32 noundef 0, i32 noundef 0)
  br label %40

39:                                               ; preds = %2, %2
  tail call fastcc void @_popup_show(ptr noundef %0)
  br label %40

40:                                               ; preds = %2, %34, %38, %39
  %.015 = phi i32 [ 1, %39 ], [ 1, %38 ], [ 1, %34 ], [ 0, %2 ]
  ret i32 %.015
}